; Function Attrs: mustprogress nounwind uwtable
define dso_local void @_ZN15node_napi_env__19DrainFinalizerQueueEv(ptr noundef nonnull align 8 dereferenceable(226) %this) local_unnamed_addr #3 align 2 {
entry:
  %ref_tracker = alloca ptr, align 8
  %_M_element_count.i.i.i = getelementptr inbounds i8, ptr %this, i64 104
  %0 = load i64, ptr %_M_element_count.i.i.i, align 8
  %cmp.i.i1 = icmp eq i64 %0, 0
  br i1 %cmp.i.i1, label %while.end, label %while.body.lr.ph

while.body.lr.ph:                                 ; preds = %entry
  %pending_finalizers = getelementptr inbounds i8, ptr %this, i64 80
  %_M_before_begin.i.i.i = getelementptr inbounds i8, ptr %this, i64 96
  br label %while.body

while.body:                                       ; preds = %while.body.lr.ph, %while.body
  %1 = load ptr, ptr %_M_before_begin.i.i.i, align 8
  %add.ptr.i = getelementptr inbounds i8, ptr %1, i64 8
  %2 = load ptr, ptr %add.ptr.i, align 8
  store ptr %2, ptr %ref_tracker, align 8
  %call.i.i = call noundef i64 @_ZNSt10_HashtableIPN6v8impl10RefTrackerES2_SaIS2_ENSt8__detail9_IdentityESt8equal_toIS2_ESt4hashIS2_ENS4_18_Mod_range_hashingENS4_20_Default_ranged_hashENS4_20_Prime_rehash_policyENS4_17_Hashtable_traitsILb0ELb1ELb1EEEE8_M_eraseESt17integral_constantIbLb1EERKS2_(ptr noundef nonnull align 8 dereferenceable(56) %pending_finalizers, ptr noundef nonnull align 8 dereferenceable(8) %ref_tracker)
  %3 = load ptr, ptr %ref_tracker, align 8
  %vtable = load ptr, ptr %3, align 8
  %vfn = getelementptr inbounds i8, ptr %vtable, i64 16
  %4 = load ptr, ptr %vfn, align 8
  call void %4(ptr noundef nonnull align 8 dereferenceable(24) %3) #21
  %5 = load i64, ptr %_M_element_count.i.i.i, align 8
  %cmp.i.i = icmp eq i64 %5, 0
  br i1 %cmp.i.i, label %while.end, label %while.body, !llvm.loop !5

while.end:                                        ; preds = %while.body, %entry
  ret void
}